target datalayout = "e-m:e-p270:32:32-p271:32:32-p272:64:64-i64:64-i128:128-f80:128-n8:16:32:64-S128"
target triple = "x86_64-pc-linux-gnu"

%class.arith_util = type { ptr, ptr }
%class.expr_strong_context_simplifier = type { ptr, %class.arith_util, %class.obj_ref.34, %"class.smt::kernel" }
%class.obj_ref.34 = type { ptr, ptr }
%"class.smt::kernel" = type { ptr }

; Function Attrs: mustprogress nounwind uwtable
define linkonce_odr hidden noundef i32 @_ZNK11ast_manager9get_eq_opEPK4expr(ptr noundef nonnull align 8 dereferenceable(976) %0, ptr noundef %1) #7 comdat align 2 {
  %3 = alloca ptr, align 8
  %4 = alloca ptr, align 8
  store ptr %0, ptr %3, align 8, !tbaa !8
  store ptr %1, ptr %4, align 8, !tbaa !57
  ret i32 2
}

; Function Attrs: mustprogress uwtable
define linkonce_odr hidden noundef ptr @_ZN11ast_manager5mk_eqEP4exprS1_(ptr noundef nonnull align 8 dereferenceable(976) %0, ptr noundef %1, ptr noundef %2) #4 comdat align 2 {
  %4 = alloca ptr, align 8
  %5 = alloca ptr, align 8
  %6 = alloca ptr, align 8
  store ptr %0, ptr %4, align 8, !tbaa !8
  store ptr %1, ptr %5, align 8, !tbaa !57
  store ptr %2, ptr %6, align 8, !tbaa !57
  %7 = load ptr, ptr %4, align 8
  %8 = load ptr, ptr %5, align 8, !tbaa !57
  %9 = call noundef i32 @_ZNK11ast_manager9get_eq_opEPK4expr(ptr noundef nonnull align 8 dereferenceable(976) %7, ptr noundef %8)
  %10 = load ptr, ptr %5, align 8, !tbaa !57
  %11 = load ptr, ptr %6, align 8, !tbaa !57
  %12 = call noundef ptr @_ZN11ast_manager6mk_appEiiP4exprS1_(ptr noundef nonnull align 8 dereferenceable(976) %7, i32 noundef 0, i32 noundef %9, ptr noundef %10, ptr noundef %11)
  ret ptr %12
}

; Function Attrs: mustprogress uwtable
define hidden noundef zeroext i1 @_ZN30expr_strong_context_simplifier9is_forcedEP4exprS1_(ptr noundef nonnull align 8 dereferenceable(48) %0, ptr noundef %1, ptr noundef %2) #4 align 2 {
  %4 = alloca ptr, align 8
  %5 = alloca ptr, align 8
  %6 = alloca ptr, align 8
  %7 = alloca i32, align 4
  store ptr %0, ptr %4, align 8, !tbaa !161
  store ptr %1, ptr %5, align 8, !tbaa !57
  store ptr %2, ptr %6, align 8, !tbaa !57
  %8 = load ptr, ptr %4, align 8
  %9 = getelementptr inbounds nuw %class.expr_strong_context_simplifier, ptr %8, i32 0, i32 3
  call void @_ZN3smt6kernel4pushEv(ptr noundef nonnull align 8 dereferenceable(8) %9)
  %10 = getelementptr inbounds nuw %class.expr_strong_context_simplifier, ptr %8, i32 0, i32 3
  %11 = getelementptr inbounds nuw %class.expr_strong_context_simplifier, ptr %8, i32 0, i32 0
  %12 = load ptr, ptr %11, align 8, !tbaa !177
  %13 = load ptr, ptr %5, align 8, !tbaa !57
  %14 = load ptr, ptr %6, align 8, !tbaa !57
  %15 = call noundef ptr @_ZN11ast_manager5mk_eqEP4exprS1_(ptr noundef nonnull align 8 dereferenceable(976) %12, ptr noundef %13, ptr noundef %14)
  call void @_ZN3smt6kernel11assert_exprEP4expr(ptr noundef nonnull align 8 dereferenceable(8) %10, ptr noundef %15)
  call void @llvm.lifetime.start.p0(i64 4, ptr %7) #3
  %16 = getelementptr inbounds nuw %class.expr_strong_context_simplifier, ptr %8, i32 0, i32 3
  %17 = call noundef i32 @_ZN3smt6kernel5checkEjPKP4expr(ptr noundef nonnull align 8 dereferenceable(8) %16, i32 noundef 0, ptr noundef null)
  store i32 %17, ptr %7, align 4, !tbaa !181
  %18 = getelementptr inbounds nuw %class.expr_strong_context_simplifier, ptr %8, i32 0, i32 3
  call void @_ZN3smt6kernel3popEj(ptr noundef nonnull align 8 dereferenceable(8) %18, i32 noundef 1)
  %19 = load i32, ptr %7, align 4, !tbaa !181
  %20 = icmp eq i32 %19, -1
  call void @llvm.lifetime.end.p0(i64 4, ptr %7) #3
  ret i1 %20
}