; Function Attrs: mustprogress uwtable
define hidden noundef zeroext i1 @_ZN30expr_strong_context_simplifier9is_forcedEP4exprS1_(ptr noundef nonnull align 8 dereferenceable(48) %0, ptr noundef %1, ptr noundef %2) local_unnamed_addr #3 align 2 {
  %4 = getelementptr inbounds nuw i8, ptr %0, i64 40
  tail call void @_ZN3smt6kernel4pushEv(ptr noundef nonnull align 8 dereferenceable(8) %4)
  %5 = load ptr, ptr %0, align 8, !tbaa !164
  %6 = tail call noundef ptr @_ZN11ast_manager6mk_appEiiP4exprS1_(ptr noundef nonnull align 8 dereferenceable(976) %5, i32 noundef 0, i32 noundef 2, ptr noundef %1, ptr noundef %2)
  tail call void @_ZN3smt6kernel11assert_exprEP4expr(ptr noundef nonnull align 8 dereferenceable(8) %4, ptr noundef %6)
  %7 = tail call noundef i32 @_ZN3smt6kernel5checkEjPKP4expr(ptr noundef nonnull align 8 dereferenceable(8) %4, i32 noundef 0, ptr noundef null)
  tail call void @_ZN3smt6kernel3popEj(ptr noundef nonnull align 8 dereferenceable(8) %4, i32 noundef 1)
  %8 = icmp eq i32 %7, -1
  ret i1 %8
}